Certificate:
    Data:
        Version: 3 (0x2)
        Serial Number: 2 (0x2)
    Signature Algorithm: sha256WithRSAEncryption
        Issuer: C=CN, ST=BJ, L=CY, O=CUC, OU=HW, CN=RootCA/emailAddress=12@com
        Validity
            Not Before: Aug 12 14:28:10 2022 GMT
            Not After : Aug  9 14:28:10 2032 GMT
        Subject: C=CN, ST=BJ, O=CUC, OU=HW, CN=secondCA/emailAddress=12@com
        Subject Public Key Info:
            Public Key Algorithm: rsaEncryption
                Public-Key: (2048 bit)
                Modulus:
                    00:d7:e4:20:a5:fe:39:a4:83:f0:b6:2b:ff:9d:7b:
                    a8:16:c1:93:42:72:8d:af:87:28:5a:5c:af:2b:3a:
                    6c:d9:16:e7:a7:76:15:d4:e6:62:4f:09:3f:b0:28:
                    7c:bb:68:61:93:6e:0c:73:12:c4:78:82:63:44:3c:
                    fe:6a:db:20:e3:ee:15:96:3d:e9:0f:2e:ec:12:93:
                    87:49:dc:d8:c7:2c:9e:aa:f8:10:84:8e:52:68:6b:
                    95:89:ac:b4:b5:dc:a1:07:37:19:d4:23:2c:79:31:
                    3b:62:2b:13:c0:73:d2:b5:e0:77:d2:2d:e3:e1:d3:
                    61:19:00:71:97:6a:0f:dc:7c:8a:47:b7:7d:76:62:
                    eb:a0:48:f8:68:2b:86:cf:5c:40:b0:96:cc:98:6b:
                    6f:3a:f7:90:db:78:f3:03:ed:8d:e6:c3:d6:12:9c:
                    b0:aa:6b:46:f2:73:29:f8:51:35:1f:33:f2:f3:90:
                    ba:32:33:de:64:4e:30:28:10:b6:17:be:62:77:f0:
                    5b:60:3a:b0:87:12:8b:91:a3:17:91:6b:4c:53:8f:
                    92:60:47:49:42:0d:0e:73:8a:8f:fe:6e:21:56:9d:
                    6e:54:b0:e1:a1:b0:73:fa:b2:e6:5f:ef:09:43:3f:
                    d0:da:6a:7b:e6:cb:ef:9d:bb:61:5c:2f:d6:e7:38:
                    82:4b
                Exponent: 65537 (0x10001)
        X509v3 extensions:
            X509v3 Subject Key Identifier: 
                B3:9D:81:83:85:F5:0D:5D:F4:12:4D:93:22:6C:06:16:DC:8F:D2:ED
            X509v3 Authority Key Identifier: 
                keyid:24:95:AC:A4:02:03:94:FE:49:0E:81:1E:A9:97:07:35:38:90:AD:0B

            X509v3 Basic Constraints: 
                CA:TRUE
    Signature Algorithm: sha256WithRSAEncryption
         9b:f8:4f:99:03:e4:17:06:b5:74:b8:2c:d0:ab:f9:f6:7b:c4:
         a8:00:68:cc:46:02:a5:34:e5:ed:f1:64:19:51:29:52:7f:1a:
         42:04:ac:4e:37:3a:e1:f1:65:6c:e8:80:37:b2:32:f5:e5:12:
         bc:15:ac:09:69:ef:93:f5:3e:e4:dd:8d:d1:a2:0a:40:e4:11:
         18:76:35:09:e7:e3:e7:df:0a:ad:b3:8d:60:1c:d0:7e:ca:eb:
         bb:df:6a:f2:ff:27:79:32:cf:95:3d:c9:70:1a:d3:8e:05:bc:
         b3:5f:7b:82:e3:32:3d:5c:0f:86:05:c1:e1:85:26:30:97:3f:
         4d:5c:bb:74:24:85:7d:5f:40:16:86:23:c6:f5:4b:75:e6:c9:
         32:4a:91:ba:94:16:87:47:54:24:a7:ac:3f:83:e5:1a:f3:5a:
         ec:26:55:04:be:0f:6e:24:0c:97:01:a9:bd:e9:4f:1a:37:4d:
         59:32:0e:30:20:08:36:eb:f8:b2:08:7b:d6:2f:09:75:59:88:
         14:5d:71:ec:3d:6f:c2:f2:ef:f9:54:cf:a1:1c:a1:5a:39:86:
         4f:5a:a0:ee:9e:5a:7a:00:8c:32:ee:4a:f8:bb:a5:55:6e:4c:
         39:28:18:f1:13:71:07:ed:40:a1:ed:c0:d7:57:df:b9:ba:a3:
         ed:28:c8:5f
-----BEGIN CERTIFICATE-----
MIIDlDCCAnygAwIBAgIBAjANBgkqhkiG9w0BAQsFADBqMQswCQYDVQQGEwJDTjEL
MAkGA1UECAwCQkoxCzAJBgNVBAcMAkNZMQwwCgYDVQQKDANDVUMxCzAJBgNVBAsM
AkhXMQ8wDQYDVQQDDAZSb290Q0ExFTATBgkqhkiG9w0BCQEWBjEyQGNvbTAeFw0y
MjA4MTIxNDI4MTBaFw0zMjA4MDkxNDI4MTBaMF8xCzAJBgNVBAYTAkNOMQswCQYD
VQQIDAJCSjEMMAoGA1UECgwDQ1VDMQswCQYDVQQLDAJIVzERMA8GA1UEAwwIc2Vj
b25kQ0ExFTATBgkqhkiG9w0BCQEWBjEyQGNvbTCCASIwDQYJKoZIhvcNAQEBBQAD
ggEPADCCAQoCggEBANfkIKX+OaSD8LYr/517qBbBk0Jyja+HKFpcrys6bNkW56d2
FdTmYk8JP7AofLtoYZNuDHMSxHiCY0Q8/mrbIOPuFZY96Q8u7BKTh0nc2Mcsnqr4
EISOUmhrlYmstLXcoQc3GdQjLHkxO2IrE8Bz0rXgd9It4+HTYRkAcZdqD9x8ike3
fXZi66BI+Ggrhs9cQLCWzJhrbzr3kNt48wPtjebD1hKcsKprRvJzKfhRNR8z8vOQ
ujIz3mROMCgQthe+YnfwW2A6sIcSi5GjF5FrTFOPkmBHSUINDnOKj/5uIVadblSw
4aGwc/qy5l/vCUM/0Npqe+bL7527YVwv1uc4gksCAwEAAaNQME4wHQYDVR0OBBYE
FLOdgYOF9Q1d9BJNkyJsBhbcj9LtMB8GA1UdIwQYMBaAFCSVrKQCA5T+SQ6BHqmX
BzU4kK0LMAwGA1UdEwQFMAMBAf8wDQYJKoZIhvcNAQELBQADggEBAJv4T5kD5BcG
tXS4LNCr+fZ7xKgAaMxGAqU05e3xZBlRKVJ/GkIErE43OuHxZWzogDeyMvXlErwV
rAlp75P1PuTdjdGiCkDkERh2NQnn4+ffCq2zjWAc0H7K67vfavL/J3kyz5U9yXAa
044FvLNfe4LjMj1cD4YFweGFJjCXP01cu3QkhX1fQBaGI8b1S3XmyTJKkbqUFodH
VCSnrD+D5RrzWuwmVQS+D24kDJcBqb3pTxo3TVkyDjAgCDbr+LIIe9YvCXVZiBRd
cew9b8Ly7/lUz6EcoVo5hk9aoO6eWnoAjDLuSvi7pVVuTDkoGPETcQftQKHtwNdX
37m6o+0oyF8=
-----END CERTIFICATE-----
