Certificate:
    Data:
        Version: 3 (0x2)
        Serial Number: 4 (0x4)
    Signature Algorithm: sha256WithRSAEncryption
        Issuer: C=CN, ST=BJ, O=CUC, OU=HW, CN=thirdCA/emailAddress=12@COM
        Validity
            Not Before: Aug 12 14:33:43 2022 GMT
            Not After : Aug  9 14:33:43 2032 GMT
        Subject: C=CN, ST=BJ, O=CUC, OU=HW, CN=ac-flask-demo.me/emailAddress=12@com
        Subject Public Key Info:
            Public Key Algorithm: rsaEncryption
                Public-Key: (2048 bit)
                Modulus:
                    00:b6:83:13:f7:d1:90:c8:b5:4d:56:a7:85:0f:04:
                    23:bf:99:ae:1a:41:ab:d7:5c:e2:31:5e:34:5c:91:
                    28:9c:29:55:f5:66:0d:11:50:d2:cd:58:0b:86:68:
                    1b:53:65:b9:7b:83:63:e2:d1:17:9a:0b:a0:db:94:
                    a4:6c:43:e9:0b:af:a4:16:27:39:cb:b0:50:9d:29:
                    eb:2e:5d:06:d0:9c:8f:d3:bc:86:4d:fd:d3:c3:f0:
                    aa:33:ee:fc:6c:6c:03:3d:f7:17:3a:98:63:18:bf:
                    ec:30:1c:6e:55:58:39:60:98:d9:aa:c3:b2:92:d3:
                    78:97:ef:7b:cc:da:78:9f:fb:e5:5c:36:ee:d2:16:
                    1f:29:ba:44:07:32:22:af:62:57:df:24:45:a2:86:
                    36:48:78:53:fe:7d:06:b9:16:67:b0:05:af:18:e4:
                    94:9e:5d:1e:0a:1a:28:a6:10:52:a5:03:15:dd:93:
                    bd:fd:86:a5:8d:bf:0d:67:9d:2b:60:d4:a2:a2:0b:
                    8f:04:33:5c:c4:79:ac:69:41:8e:85:40:a1:12:63:
                    4b:0b:04:f2:50:58:13:79:d9:5a:fb:bd:a4:9e:5e:
                    06:7e:76:ab:3d:04:06:6e:84:09:44:5d:ea:07:cb:
                    85:1f:c7:ca:99:3d:1c:3c:5c:68:5f:c3:7b:53:13:
                    0c:3f
                Exponent: 65537 (0x10001)
        X509v3 extensions:
            X509v3 Basic Constraints: 
                CA:FALSE
            Netscape Comment: 
                OpenSSL Generated Certificate
            X509v3 Subject Key Identifier: 
                84:2E:07:71:67:5D:B6:2C:8B:30:1D:E0:DA:9B:CA:98:54:4B:86:29
            X509v3 Authority Key Identifier: 
                keyid:33:F9:9C:95:A9:64:24:67:FB:70:EB:F5:8A:08:8B:0C:5A:42:AA:69

    Signature Algorithm: sha256WithRSAEncryption
         11:95:33:fb:7e:ad:da:32:c4:32:5f:ae:86:0f:d4:10:49:4d:
         c1:ce:d3:55:54:fc:3f:8c:72:3d:fa:61:d0:37:a1:ea:93:e0:
         20:b9:37:9e:02:4d:5a:06:7d:e2:aa:ed:25:90:70:0c:ee:ba:
         10:e7:42:25:ef:08:97:19:c4:d4:22:90:f7:68:db:72:db:10:
         38:e4:e9:36:f6:e3:e6:9b:af:7c:8d:67:9f:b0:c0:c5:d0:b1:
         f8:86:4b:c6:e4:d1:88:57:18:d2:77:8c:57:79:68:0d:b8:25:
         05:29:6d:d0:17:01:2e:f1:28:79:26:99:cc:fe:8d:4e:cd:b0:
         f2:e6:49:22:2b:60:18:66:a9:32:ad:d3:55:91:3a:1b:ed:00:
         e3:dc:a3:71:8d:19:b9:e7:c6:f4:87:8e:50:d7:bd:20:08:93:
         5c:0c:30:cf:94:53:35:9b:f9:f8:28:f8:01:13:1a:44:6a:39:
         14:17:ab:d6:38:22:56:f8:28:ba:8e:c5:b1:da:46:e7:a2:c9:
         f9:30:b5:d4:73:c4:6c:56:c5:4b:c5:bb:8c:f1:fc:db:e3:17:
         74:00:2f:fc:7b:cb:b0:82:01:90:50:2c:49:78:50:52:92:c6:
         7c:15:7c:78:f5:32:ac:b1:9a:84:eb:68:9f:e7:15:2e:1c:2c:
         8b:1b:46:3c
-----BEGIN CERTIFICATE-----
MIIDuzCCAqOgAwIBAgIBBDANBgkqhkiG9w0BAQsFADBeMQswCQYDVQQGEwJDTjEL
MAkGA1UECAwCQkoxDDAKBgNVBAoMA0NVQzELMAkGA1UECwwCSFcxEDAOBgNVBAMM
B3RoaXJkQ0ExFTATBgkqhkiG9w0BCQEWBjEyQENPTTAeFw0yMjA4MTIxNDMzNDNa
Fw0zMjA4MDkxNDMzNDNaMGcxCzAJBgNVBAYTAkNOMQswCQYDVQQIDAJCSjEMMAoG
A1UECgwDQ1VDMQswCQYDVQQLDAJIVzEZMBcGA1UEAwwQYWMtZmxhc2stZGVtby5t
ZTEVMBMGCSqGSIb3DQEJARYGMTJAY29tMIIBIjANBgkqhkiG9w0BAQEFAAOCAQ8A
MIIBCgKCAQEAtoMT99GQyLVNVqeFDwQjv5muGkGr11ziMV40XJEonClV9WYNEVDS
zVgLhmgbU2W5e4Nj4tEXmgug25SkbEPpC6+kFic5y7BQnSnrLl0G0JyP07yGTf3T
w/CqM+78bGwDPfcXOphjGL/sMBxuVVg5YJjZqsOyktN4l+97zNp4n/vlXDbu0hYf
KbpEBzIir2JX3yRFooY2SHhT/n0GuRZnsAWvGOSUnl0eChoophBSpQMV3ZO9/Yal
jb8NZ50rYNSioguPBDNcxHmsaUGOhUChEmNLCwTyUFgTedla+72knl4GfnarPQQG
boQJRF3qB8uFH8fKmT0cPFxoX8N7UxMMPwIDAQABo3sweTAJBgNVHRMEAjAAMCwG
CWCGSAGG+EIBDQQfFh1PcGVuU1NMIEdlbmVyYXRlZCBDZXJ0aWZpY2F0ZTAdBgNV
HQ4EFgQUhC4HcWddtiyLMB3g2pvKmFRLhikwHwYDVR0jBBgwFoAUM/mclalkJGf7
cOv1igiLDFpCqmkwDQYJKoZIhvcNAQELBQADggEBABGVM/t+rdoyxDJfroYP1BBJ
TcHO01VU/D+Mcj36YdA3oeqT4CC5N54CTVoGfeKq7SWQcAzuuhDnQiXvCJcZxNQi
kPdo23LbEDjk6Tb24+abr3yNZ5+wwMXQsfiGS8bk0YhXGNJ3jFd5aA24JQUpbdAX
AS7xKHkmmcz+jU7NsPLmSSIrYBhmqTKt01WROhvtAOPco3GNGbnnxvSHjlDXvSAI
k1wMMM+UUzWb+fgo+AETGkRqORQXq9Y4Ilb4KLqOxbHaRueiyfkwtdRzxGxWxUvF
u4zx/NvjF3QAL/x7y7CCAZBQLEl4UFKSxnwVfHj1MqyxmoTraJ/nFS4cLIsbRjw=
-----END CERTIFICATE-----
